target datalayout = "e-m:e-p270:32:32-p271:32:32-p272:64:64-i64:64-i128:128-f80:128-n8:16:32:64-S128"
target triple = "x86_64-pc-linux-gnu"

%"struct.std::_Rb_tree_node_base" = type { i32, ptr, ptr, ptr }
%"class.std::__cxx11::basic_string" = type { %"struct.std::__cxx11::basic_string<char>::_Alloc_hider", i64, %union.anon.3 }
%"struct.std::__cxx11::basic_string<char>::_Alloc_hider" = type { ptr }
%union.anon.3 = type { i64, [8 x i8] }
%"struct.std::_Rb_tree_const_iterator" = type { ptr }
%class.anon.63 = type { ptr }
%"struct.(anonymous namespace)::ActionDescriptor" = type { i32, %"class.std::__cxx11::basic_string", i64, %"class.std::unique_ptr.55" }
%"class.std::unique_ptr.55" = type { %"struct.std::__uniq_ptr_data.56" }
%"struct.std::__uniq_ptr_data.56" = type { %"class.std::__uniq_ptr_impl.57" }
%"class.std::__uniq_ptr_impl.57" = type { %"class.std::tuple.58" }
%"class.std::tuple.58" = type { %"struct.std::_Tuple_impl.59" }
%"struct.std::_Tuple_impl.59" = type { %"struct.std::_Head_base.62" }
%"struct.std::_Head_base.62" = type { ptr }
%"struct.std::_Rb_tree_node" = type { %"struct.std::_Rb_tree_node_base", %"struct.__gnu_cxx::__aligned_membuf" }
%"struct.__gnu_cxx::__aligned_membuf" = type { [56 x i8] }

; Function Attrs: mustprogress nounwind uwtable
define internal noundef nonnull align 8 dereferenceable(8) ptr @_ZNSt10_Head_baseILm0EPN12_GLOBAL__N_115TransformActionELb0EE7_M_headERKS3_(ptr noundef nonnull align 8 dereferenceable(8) %0) #5 align 2 {
  %2 = alloca ptr, align 8
  store ptr %0, ptr %2, align 8
  %3 = load ptr, ptr %2, align 8
  %4 = getelementptr inbounds %"struct.std::_Head_base.62", ptr %3, i32 0, i32 0
  ret ptr %4
}

; Function Attrs: mustprogress nounwind uwtable
define internal noundef nonnull align 8 dereferenceable(8) ptr @_ZNSt11_Tuple_implILm0EJPN12_GLOBAL__N_115TransformActionESt14default_deleteIS1_EEE7_M_headERKS5_(ptr noundef nonnull align 8 dereferenceable(8) %0) #5 align 2 {
  %2 = alloca ptr, align 8
  store ptr %0, ptr %2, align 8
  %3 = load ptr, ptr %2, align 8
  %4 = call noundef nonnull align 8 dereferenceable(8) ptr @_ZNSt10_Head_baseILm0EPN12_GLOBAL__N_115TransformActionELb0EE7_M_headERKS3_(ptr noundef nonnull align 8 dereferenceable(8) %3) #3
  ret ptr %4
}

; Function Attrs: mustprogress nounwind uwtable
define internal noundef nonnull align 8 dereferenceable(8) ptr @_ZSt12__get_helperILm0EPN12_GLOBAL__N_115TransformActionEJSt14default_deleteIS1_EEERKT0_RKSt11_Tuple_implIXT_EJS5_DpT1_EE(ptr noundef nonnull align 8 dereferenceable(8) %0) #5 {
  %2 = alloca ptr, align 8
  store ptr %0, ptr %2, align 8
  %3 = load ptr, ptr %2, align 8
  %4 = call noundef nonnull align 8 dereferenceable(8) ptr @_ZNSt11_Tuple_implILm0EJPN12_GLOBAL__N_115TransformActionESt14default_deleteIS1_EEE7_M_headERKS5_(ptr noundef nonnull align 8 dereferenceable(8) %3) #3
  ret ptr %4
}

; Function Attrs: mustprogress nounwind uwtable
define internal noundef nonnull align 8 dereferenceable(8) ptr @_ZSt3getILm0EJPN12_GLOBAL__N_115TransformActionESt14default_deleteIS1_EEERKNSt13tuple_elementIXT_ESt5tupleIJDpT0_EEE4typeERKS9_(ptr noundef nonnull align 8 dereferenceable(8) %0) #5 {
  %2 = alloca ptr, align 8
  store ptr %0, ptr %2, align 8
  %3 = load ptr, ptr %2, align 8
  %4 = call noundef nonnull align 8 dereferenceable(8) ptr @_ZSt12__get_helperILm0EPN12_GLOBAL__N_115TransformActionEJSt14default_deleteIS1_EEERKT0_RKSt11_Tuple_implIXT_EJS5_DpT1_EE(ptr noundef nonnull align 8 dereferenceable(8) %3) #3
  ret ptr %4
}

; Function Attrs: mustprogress nounwind uwtable
define internal noundef ptr @_ZNK9__gnu_cxx16__aligned_membufIN12_GLOBAL__N_116ActionDescriptorEE7_M_addrEv(ptr noundef nonnull align 8 dereferenceable(56) %0) #5 align 2 {
  %2 = alloca ptr, align 8
  store ptr %0, ptr %2, align 8
  %3 = load ptr, ptr %2, align 8
  %4 = getelementptr inbounds %"struct.__gnu_cxx::__aligned_membuf", ptr %3, i32 0, i32 0
  ret ptr %4
}

; Function Attrs: mustprogress nounwind uwtable
define internal noundef ptr @_ZNKSt15__uniq_ptr_implIN12_GLOBAL__N_115TransformActionESt14default_deleteIS1_EE6_M_ptrEv(ptr noundef nonnull align 8 dereferenceable(8) %0) #5 align 2 {
  %2 = alloca ptr, align 8
  store ptr %0, ptr %2, align 8
  %3 = load ptr, ptr %2, align 8
  %4 = getelementptr inbounds %"class.std::__uniq_ptr_impl.57", ptr %3, i32 0, i32 0
  %5 = call noundef nonnull align 8 dereferenceable(8) ptr @_ZSt3getILm0EJPN12_GLOBAL__N_115TransformActionESt14default_deleteIS1_EEERKNSt13tuple_elementIXT_ESt5tupleIJDpT0_EEE4typeERKS9_(ptr noundef nonnull align 8 dereferenceable(8) %4) #3
  %6 = load ptr, ptr %5, align 8
  ret ptr %6
}

; Function Attrs: mustprogress nounwind uwtable
define internal noundef ptr @_ZNK9__gnu_cxx16__aligned_membufIN12_GLOBAL__N_116ActionDescriptorEE6_M_ptrEv(ptr noundef nonnull align 8 dereferenceable(56) %0) #5 align 2 {
  %2 = alloca ptr, align 8
  store ptr %0, ptr %2, align 8
  %3 = load ptr, ptr %2, align 8
  %4 = call noundef ptr @_ZNK9__gnu_cxx16__aligned_membufIN12_GLOBAL__N_116ActionDescriptorEE7_M_addrEv(ptr noundef nonnull align 8 dereferenceable(56) %3) #3
  ret ptr %4
}

; Function Attrs: mustprogress nounwind uwtable
define internal noundef ptr @_ZNKSt10unique_ptrIN12_GLOBAL__N_115TransformActionESt14default_deleteIS1_EE3getEv(ptr noundef nonnull align 8 dereferenceable(8) %0) #5 align 2 {
  %2 = alloca ptr, align 8
  store ptr %0, ptr %2, align 8
  %3 = load ptr, ptr %2, align 8
  %4 = getelementptr inbounds %"class.std::unique_ptr.55", ptr %3, i32 0, i32 0
  %5 = call noundef ptr @_ZNKSt15__uniq_ptr_implIN12_GLOBAL__N_115TransformActionESt14default_deleteIS1_EE6_M_ptrEv(ptr noundef nonnull align 8 dereferenceable(8) %4) #3
  ret ptr %5
}

; Function Attrs: mustprogress nounwind uwtable
define internal noundef ptr @_ZNKSt13_Rb_tree_nodeIN12_GLOBAL__N_116ActionDescriptorEE9_M_valptrEv(ptr noundef nonnull align 8 dereferenceable(88) %0) #5 align 2 {
  %2 = alloca ptr, align 8
  store ptr %0, ptr %2, align 8
  %3 = load ptr, ptr %2, align 8
  %4 = getelementptr inbounds %"struct.std::_Rb_tree_node", ptr %3, i32 0, i32 1
  %5 = call noundef ptr @_ZNK9__gnu_cxx16__aligned_membufIN12_GLOBAL__N_116ActionDescriptorEE6_M_ptrEv(ptr noundef nonnull align 8 dereferenceable(56) %4) #3
  ret ptr %5
}

; Function Attrs: mustprogress nounwind uwtable
define internal noundef nonnull align 8 dereferenceable(16) ptr @_ZNKSt10unique_ptrIN12_GLOBAL__N_115TransformActionESt14default_deleteIS1_EEdeEv(ptr noundef nonnull align 8 dereferenceable(8) %0) #5 align 2 {
  %2 = alloca ptr, align 8
  store ptr %0, ptr %2, align 8
  %3 = load ptr, ptr %2, align 8
  br label %4

4:                                                ; preds = %1
  br label %5

5:                                                ; preds = %4
  br label %6

6:                                                ; preds = %5
  %7 = call noundef ptr @_ZNKSt10unique_ptrIN12_GLOBAL__N_115TransformActionESt14default_deleteIS1_EE3getEv(ptr noundef nonnull align 8 dereferenceable(8) %3) #3
  ret ptr %7
}

; Function Attrs: mustprogress nounwind uwtable
define internal noundef ptr @_ZNKSt23_Rb_tree_const_iteratorIN12_GLOBAL__N_116ActionDescriptorEEptEv(ptr noundef nonnull align 8 dereferenceable(8) %0) #5 align 2 {
  %2 = alloca ptr, align 8
  store ptr %0, ptr %2, align 8
  %3 = load ptr, ptr %2, align 8
  %4 = getelementptr inbounds %"struct.std::_Rb_tree_const_iterator", ptr %3, i32 0, i32 0
  %5 = load ptr, ptr %4, align 8
  %6 = call noundef ptr @_ZNKSt13_Rb_tree_nodeIN12_GLOBAL__N_116ActionDescriptorEE9_M_valptrEv(ptr noundef nonnull align 8 dereferenceable(88) %5)
  ret ptr %6
}

; Function Attrs: mustprogress uwtable
define internal void @"_ZZN6cmList9transformENS_15TransformActionESt10unique_ptrINS_17TransformSelectorESt14default_deleteIS2_EEENK3$_0clERKNSt7__cxx1112basic_stringIcSt11char_traitsIcESaIcEEE"(ptr dead_on_unwind noalias writable sret(%"class.std::__cxx11::basic_string") align 8 %0, ptr noundef nonnull align 8 dereferenceable(8) %1, ptr noundef nonnull align 8 dereferenceable(32) %2) #4 align 2 {
  %4 = alloca ptr, align 8
  %5 = alloca ptr, align 8
  %6 = alloca ptr, align 8
  store ptr %0, ptr %4, align 8
  store ptr %1, ptr %5, align 8
  store ptr %2, ptr %6, align 8
  %7 = load ptr, ptr %5, align 8
  %8 = getelementptr inbounds %class.anon.63, ptr %7, i32 0, i32 0
  %9 = load ptr, ptr %8, align 8
  %10 = call noundef ptr @_ZNKSt23_Rb_tree_const_iteratorIN12_GLOBAL__N_116ActionDescriptorEEptEv(ptr noundef nonnull align 8 dereferenceable(8) %9) #3
  %11 = getelementptr inbounds %"struct.(anonymous namespace)::ActionDescriptor", ptr %10, i32 0, i32 3
  %12 = call noundef nonnull align 8 dereferenceable(16) ptr @_ZNKSt10unique_ptrIN12_GLOBAL__N_115TransformActionESt14default_deleteIS1_EEdeEv(ptr noundef nonnull align 8 dereferenceable(8) %11) #3
  %13 = load ptr, ptr %6, align 8
  %14 = load ptr, ptr %12, align 8
  %15 = getelementptr inbounds ptr, ptr %14, i64 5
  %16 = load ptr, ptr %15, align 8
  call void %16(ptr dead_on_unwind writable sret(%"class.std::__cxx11::basic_string") align 8 %0, ptr noundef nonnull align 8 dereferenceable(16) %12, ptr noundef nonnull align 8 dereferenceable(32) %13)
  ret void
}

; Function Attrs: mustprogress nounwind uwtable
define linkonce_odr dso_local noundef ptr @_ZNKSt9_Any_data9_M_accessEv(ptr noundef nonnull align 8 dereferenceable(16) %0) #5 comdat align 2 {
  %2 = alloca ptr, align 8
  store ptr %0, ptr %2, align 8
  %3 = load ptr, ptr %2, align 8
  %4 = getelementptr inbounds [16 x i8], ptr %3, i64 0, i64 0
  ret ptr %4
}

; Function Attrs: mustprogress uwtable
define internal void @"_ZSt13__invoke_implINSt7__cxx1112basic_stringIcSt11char_traitsIcESaIcEEERZN6cmList9transformENS6_15TransformActionESt10unique_ptrINS6_17TransformSelectorESt14default_deleteIS9_EEE3$_0JRKS5_EET_St14__invoke_otherOT0_DpOT1_"(ptr dead_on_unwind noalias writable sret(%"class.std::__cxx11::basic_string") align 8 %0, ptr noundef nonnull align 8 dereferenceable(8) %1, ptr noundef nonnull align 8 dereferenceable(32) %2) #4 {
  %4 = alloca ptr, align 8
  %5 = alloca ptr, align 8
  %6 = alloca ptr, align 8
  store ptr %0, ptr %4, align 8
  store ptr %1, ptr %5, align 8
  store ptr %2, ptr %6, align 8
  %7 = load ptr, ptr %5, align 8
  %8 = load ptr, ptr %6, align 8
  call void @"_ZZN6cmList9transformENS_15TransformActionESt10unique_ptrINS_17TransformSelectorESt14default_deleteIS2_EEENK3$_0clERKNSt7__cxx1112basic_stringIcSt11char_traitsIcESaIcEEE"(ptr dead_on_unwind writable sret(%"class.std::__cxx11::basic_string") align 8 %0, ptr noundef nonnull align 8 dereferenceable(8) %7, ptr noundef nonnull align 8 dereferenceable(32) %8)
  ret void
}

; Function Attrs: mustprogress nounwind uwtable
define internal noundef nonnull align 8 dereferenceable(8) ptr @"_ZNKSt9_Any_data9_M_accessIZN6cmList9transformENS1_15TransformActionESt10unique_ptrINS1_17TransformSelectorESt14default_deleteIS4_EEE3$_0EERKT_v"(ptr noundef nonnull align 8 dereferenceable(16) %0) #5 align 2 {
  %2 = alloca ptr, align 8
  store ptr %0, ptr %2, align 8
  %3 = load ptr, ptr %2, align 8
  %4 = call noundef ptr @_ZNKSt9_Any_data9_M_accessEv(ptr noundef nonnull align 8 dereferenceable(16) %3) #3
  ret ptr %4
}

; Function Attrs: mustprogress uwtable
define internal void @"_ZSt10__invoke_rINSt7__cxx1112basic_stringIcSt11char_traitsIcESaIcEEERZN6cmList9transformENS6_15TransformActionESt10unique_ptrINS6_17TransformSelectorESt14default_deleteIS9_EEE3$_0JRKS5_EENSt9enable_ifIX16is_invocable_r_vIT_T0_DpT1_EESI_E4typeEOSJ_DpOSK_"(ptr dead_on_unwind noalias writable sret(%"class.std::__cxx11::basic_string") align 8 %0, ptr noundef nonnull align 8 dereferenceable(8) %1, ptr noundef nonnull align 8 dereferenceable(32) %2) #4 {
  %4 = alloca ptr, align 8
  %5 = alloca ptr, align 8
  %6 = alloca ptr, align 8
  store ptr %0, ptr %4, align 8
  store ptr %1, ptr %5, align 8
  store ptr %2, ptr %6, align 8
  %7 = load ptr, ptr %5, align 8
  %8 = load ptr, ptr %6, align 8
  call void @"_ZSt13__invoke_implINSt7__cxx1112basic_stringIcSt11char_traitsIcESaIcEEERZN6cmList9transformENS6_15TransformActionESt10unique_ptrINS6_17TransformSelectorESt14default_deleteIS9_EEE3$_0JRKS5_EET_St14__invoke_otherOT0_DpOT1_"(ptr dead_on_unwind writable sret(%"class.std::__cxx11::basic_string") align 8 %0, ptr noundef nonnull align 8 dereferenceable(8) %7, ptr noundef nonnull align 8 dereferenceable(32) %8)
  ret void
}

; Function Attrs: mustprogress nounwind uwtable
define internal noundef ptr @"_ZNSt14_Function_base13_Base_managerIZN6cmList9transformENS1_15TransformActionESt10unique_ptrINS1_17TransformSelectorESt14default_deleteIS4_EEE3$_0E14_M_get_pointerERKSt9_Any_data"(ptr noundef nonnull align 8 dereferenceable(16) %0) #5 align 2 {
  %2 = alloca ptr, align 8
  %3 = alloca ptr, align 8
  store ptr %0, ptr %2, align 8
  %4 = load ptr, ptr %2, align 8
  %5 = call noundef nonnull align 8 dereferenceable(8) ptr @"_ZNKSt9_Any_data9_M_accessIZN6cmList9transformENS1_15TransformActionESt10unique_ptrINS1_17TransformSelectorESt14default_deleteIS4_EEE3$_0EERKT_v"(ptr noundef nonnull align 8 dereferenceable(16) %4) #3
  store ptr %5, ptr %3, align 8
  %6 = load ptr, ptr %3, align 8
  ret ptr %6
}

; Function Attrs: mustprogress uwtable
define internal void @"_ZNSt17_Function_handlerIFNSt7__cxx1112basic_stringIcSt11char_traitsIcESaIcEEERKS5_EZN6cmList9transformENS9_15TransformActionESt10unique_ptrINS9_17TransformSelectorESt14default_deleteISC_EEE3$_0E9_M_invokeERKSt9_Any_dataS7_"(ptr dead_on_unwind noalias writable sret(%"class.std::__cxx11::basic_string") align 8 %0, ptr noundef nonnull align 8 dereferenceable(16) %1, ptr noundef nonnull align 8 dereferenceable(32) %2) #4 align 2 {
  %4 = alloca ptr, align 8
  %5 = alloca ptr, align 8
  %6 = alloca ptr, align 8
  store ptr %0, ptr %4, align 8
  store ptr %1, ptr %5, align 8
  store ptr %2, ptr %6, align 8
  %7 = load ptr, ptr %5, align 8
  %8 = call noundef ptr @"_ZNSt14_Function_base13_Base_managerIZN6cmList9transformENS1_15TransformActionESt10unique_ptrINS1_17TransformSelectorESt14default_deleteIS4_EEE3$_0E14_M_get_pointerERKSt9_Any_data"(ptr noundef nonnull align 8 dereferenceable(16) %7) #3
  %9 = load ptr, ptr %6, align 8
  call void @"_ZSt10__invoke_rINSt7__cxx1112basic_stringIcSt11char_traitsIcESaIcEEERZN6cmList9transformENS6_15TransformActionESt10unique_ptrINS6_17TransformSelectorESt14default_deleteIS9_EEE3$_0JRKS5_EENSt9enable_ifIX16is_invocable_r_vIT_T0_DpT1_EESI_E4typeEOSJ_DpOSK_"(ptr dead_on_unwind writable sret(%"class.std::__cxx11::basic_string") align 8 %0, ptr noundef nonnull align 8 dereferenceable(8) %8, ptr noundef nonnull align 8 dereferenceable(32) %9)
  ret void
}